target datalayout = "e-m:e-p270:32:32-p271:32:32-p272:64:64-i64:64-i128:128-f80:128-n8:16:32:64-S128"
target triple = "x86_64-unknown-linux-gnu"

%"struct.icu_75::number::impl::ParsedPatternInfo" = type <{ %"class.icu_75::number::impl::AffixPatternProvider", %"class.icu_75::UnicodeString", %"struct.icu_75::number::impl::ParsedSubpatternInfo", %"struct.icu_75::number::impl::ParsedSubpatternInfo", %"struct.icu_75::number::impl::ParsedPatternInfo::ParserState", ptr, i8, [7 x i8] }>
%"class.icu_75::number::impl::AffixPatternProvider" = type { ptr }
%"class.icu_75::UnicodeString" = type { %"class.icu_75::Replaceable", %"union.icu_75::UnicodeString::StackBufferOrFields" }
%"class.icu_75::Replaceable" = type { %"class.icu_75::UObject" }
%"class.icu_75::UObject" = type { ptr }
%"union.icu_75::UnicodeString::StackBufferOrFields" = type { %struct.anon.0, [32 x i8] }
%struct.anon.0 = type { i16, i32, i32, ptr }
%"struct.icu_75::number::impl::ParsedSubpatternInfo" = type { i64, i32, i32, i32, i32, i32, i32, i32, i32, i8, i32, i8, i32, %"class.icu_75::number::impl::DecimalQuantity", i8, i32, i8, i8, i8, i8, i8, i8, %"struct.icu_75::number::impl::Endpoints", %"struct.icu_75::number::impl::Endpoints", %"struct.icu_75::number::impl::Endpoints" }
%"class.icu_75::number::impl::DecimalQuantity" = type <{ %"class.icu_75::IFixedDecimal", i8, [3 x i8], i32, i32, i8, i8, [2 x i8], double, i32, i32, i32, i32, %union.anon, i8, i8, [6 x i8] }>
%"class.icu_75::IFixedDecimal" = type { ptr }
%union.anon = type { %struct.anon.1 }
%struct.anon.1 = type { ptr, i32 }
%"struct.icu_75::number::impl::Endpoints" = type { i32, i32 }
%"struct.icu_75::number::impl::ParsedPatternInfo::ParserState" = type <{ ptr, i32, [4 x i8] }>

; Function Attrs: mustprogress nounwind uwtable
define linkonce_odr noundef i32 @_ZNK6icu_7513UnicodeString14getShortLengthEv(ptr noundef nonnull align 8 dereferenceable(64) %this) #0 comdat align 2 {
entry:
  %this.addr = alloca ptr, align 8
  store ptr %this, ptr %this.addr, align 8
  %this1 = load ptr, ptr %this.addr, align 8
  %fUnion = getelementptr inbounds %"class.icu_75::UnicodeString", ptr %this1, i32 0, i32 1
  %fLengthAndFlags = getelementptr inbounds %struct.anon.0, ptr %fUnion, i32 0, i32 0
  %0 = load i16, ptr %fLengthAndFlags, align 8
  %conv = sext i16 %0 to i32
  %shr = ashr i32 %conv, 5
  ret i32 %shr
}

; Function Attrs: mustprogress nounwind uwtable
define linkonce_odr noundef signext i8 @_ZNK6icu_7513UnicodeString14hasShortLengthEv(ptr noundef nonnull align 8 dereferenceable(64) %this) #0 comdat align 2 {
entry:
  %this.addr = alloca ptr, align 8
  store ptr %this, ptr %this.addr, align 8
  %this1 = load ptr, ptr %this.addr, align 8
  %fUnion = getelementptr inbounds %"class.icu_75::UnicodeString", ptr %this1, i32 0, i32 1
  %fLengthAndFlags = getelementptr inbounds %struct.anon.0, ptr %fUnion, i32 0, i32 0
  %0 = load i16, ptr %fLengthAndFlags, align 8
  %conv = sext i16 %0 to i32
  %cmp = icmp sge i32 %conv, 0
  %conv2 = zext i1 %cmp to i8
  ret i8 %conv2
}

; Function Attrs: mustprogress uwtable
define linkonce_odr noundef i32 @_ZNK6icu_7513UnicodeString6lengthEv(ptr noundef nonnull align 8 dereferenceable(64) %this) #1 comdat align 2 {
entry:
  %this.addr = alloca ptr, align 8
  store ptr %this, ptr %this.addr, align 8
  %this1 = load ptr, ptr %this.addr, align 8
  %call = call noundef signext i8 @_ZNK6icu_7513UnicodeString14hasShortLengthEv(ptr noundef nonnull align 8 dereferenceable(64) %this1)
  %tobool = icmp ne i8 %call, 0
  br i1 %tobool, label %cond.true, label %cond.false

cond.true:                                        ; preds = %entry
  %call2 = call noundef i32 @_ZNK6icu_7513UnicodeString14getShortLengthEv(ptr noundef nonnull align 8 dereferenceable(64) %this1)
  br label %cond.end

cond.false:                                       ; preds = %entry
  %fUnion = getelementptr inbounds %"class.icu_75::UnicodeString", ptr %this1, i32 0, i32 1
  %fLength = getelementptr inbounds %struct.anon.0, ptr %fUnion, i32 0, i32 1
  %0 = load i32, ptr %fLength, align 4
  br label %cond.end

cond.end:                                         ; preds = %cond.false, %cond.true
  %cond = phi i32 [ %call2, %cond.true ], [ %0, %cond.false ]
  ret i32 %cond
}

; Function Attrs: mustprogress uwtable
define noundef i32 @_ZN6icu_756number4impl17ParsedPatternInfo11ParserState4nextEv(ptr noundef nonnull align 8 dereferenceable(12) %this) #1 align 2 {
entry:
  %this.addr = alloca ptr, align 8
  %codePoint = alloca i32, align 4
  store ptr %this, ptr %this.addr, align 8
  %this1 = load ptr, ptr %this.addr, align 8
  %call = call noundef i32 @_ZN6icu_756number4impl17ParsedPatternInfo11ParserState4peekEv(ptr noundef nonnull align 8 dereferenceable(12) %this1)
  store i32 %call, ptr %codePoint, align 4
  %0 = load i32, ptr %codePoint, align 4
  %cmp = icmp ule i32 %0, 65535
  %cond = select i1 %cmp, i32 1, i32 2
  %offset = getelementptr inbounds %"struct.icu_75::number::impl::ParsedPatternInfo::ParserState", ptr %this1, i32 0, i32 1
  %1 = load i32, ptr %offset, align 8
  %add = add nsw i32 %1, %cond
  store i32 %add, ptr %offset, align 8
  %2 = load i32, ptr %codePoint, align 4
  ret i32 %2
}

; Function Attrs: mustprogress nounwind uwtable
define linkonce_odr void @_ZN6icu_756number4impl17ParsedPatternInfo11ParserState16toParseExceptionEPKDs(ptr noundef nonnull align 8 dereferenceable(12) %this, ptr noundef %message) #0 comdat align 2 {
entry:
  %this.addr = alloca ptr, align 8
  %message.addr = alloca ptr, align 8
  store ptr %this, ptr %this.addr, align 8
  store ptr %message, ptr %message.addr, align 8
  ret void
}

; Function Attrs: mustprogress uwtable
define noundef i32 @_ZN6icu_756number4impl17ParsedPatternInfo11ParserState4peekEv(ptr noundef nonnull align 8 dereferenceable(12) %this) #1 align 2 {
entry:
  %retval = alloca i32, align 4
  %this.addr = alloca ptr, align 8
  store ptr %this, ptr %this.addr, align 8
  %this1 = load ptr, ptr %this.addr, align 8
  %offset = getelementptr inbounds %"struct.icu_75::number::impl::ParsedPatternInfo::ParserState", ptr %this1, i32 0, i32 1
  %0 = load i32, ptr %offset, align 8
  %pattern = getelementptr inbounds %"struct.icu_75::number::impl::ParsedPatternInfo::ParserState", ptr %this1, i32 0, i32 0
  %1 = load ptr, ptr %pattern, align 8
  %call = call noundef i32 @_ZNK6icu_7513UnicodeString6lengthEv(ptr noundef nonnull align 8 dereferenceable(64) %1)
  %cmp = icmp eq i32 %0, %call
  br i1 %cmp, label %if.then, label %if.else

if.then:                                          ; preds = %entry
  store i32 -1, ptr %retval, align 4
  br label %return

if.else:                                          ; preds = %entry
  %pattern2 = getelementptr inbounds %"struct.icu_75::number::impl::ParsedPatternInfo::ParserState", ptr %this1, i32 0, i32 0
  %2 = load ptr, ptr %pattern2, align 8
  %offset3 = getelementptr inbounds %"struct.icu_75::number::impl::ParsedPatternInfo::ParserState", ptr %this1, i32 0, i32 1
  %3 = load i32, ptr %offset3, align 8
  %call4 = call noundef i32 @_ZNK6icu_7513UnicodeString8char32AtEi(ptr noundef nonnull align 8 dereferenceable(64) %2, i32 noundef %3)
  store i32 %call4, ptr %retval, align 4
  br label %return

return:                                           ; preds = %if.else, %if.then
  %4 = load i32, ptr %retval, align 4
  ret i32 %4
}

; Function Attrs: mustprogress uwtable
define void @_ZN6icu_756number4impl17ParsedPatternInfo14consumeLiteralER10UErrorCode(ptr noundef nonnull align 8 dereferenceable(433) %this, ptr noundef nonnull align 4 dereferenceable(4) %status) #1 align 2 {
entry:
  %this.addr = alloca ptr, align 8
  %status.addr = alloca ptr, align 8
  store ptr %this, ptr %this.addr, align 8
  store ptr %status, ptr %status.addr, align 8
  %this1 = load ptr, ptr %this.addr, align 8
  %state = getelementptr inbounds %"struct.icu_75::number::impl::ParsedPatternInfo", ptr %this1, i32 0, i32 4
  %call = call noundef i32 @_ZN6icu_756number4impl17ParsedPatternInfo11ParserState4peekEv(ptr noundef nonnull align 8 dereferenceable(12) %state)
  %cmp = icmp eq i32 %call, -1
  br i1 %cmp, label %if.then, label %if.else

if.then:                                          ; preds = %entry
  %state2 = getelementptr inbounds %"struct.icu_75::number::impl::ParsedPatternInfo", ptr %this1, i32 0, i32 4
  call void @_ZN6icu_756number4impl17ParsedPatternInfo11ParserState16toParseExceptionEPKDs(ptr noundef nonnull align 8 dereferenceable(12) %state2, ptr noundef @.str.2)
  %0 = load ptr, ptr %status.addr, align 8
  store i32 65799, ptr %0, align 4
  br label %if.end26

if.else:                                          ; preds = %entry
  %state3 = getelementptr inbounds %"struct.icu_75::number::impl::ParsedPatternInfo", ptr %this1, i32 0, i32 4
  %call4 = call noundef i32 @_ZN6icu_756number4impl17ParsedPatternInfo11ParserState4peekEv(ptr noundef nonnull align 8 dereferenceable(12) %state3)
  %cmp5 = icmp eq i32 %call4, 39
  br i1 %cmp5, label %if.then6, label %if.else22

if.then6:                                         ; preds = %if.else
  %state7 = getelementptr inbounds %"struct.icu_75::number::impl::ParsedPatternInfo", ptr %this1, i32 0, i32 4
  %call8 = call noundef i32 @_ZN6icu_756number4impl17ParsedPatternInfo11ParserState4nextEv(ptr noundef nonnull align 8 dereferenceable(12) %state7)
  br label %while.cond

while.cond:                                       ; preds = %if.end, %if.then6
  %state9 = getelementptr inbounds %"struct.icu_75::number::impl::ParsedPatternInfo", ptr %this1, i32 0, i32 4
  %call10 = call noundef i32 @_ZN6icu_756number4impl17ParsedPatternInfo11ParserState4peekEv(ptr noundef nonnull align 8 dereferenceable(12) %state9)
  %cmp11 = icmp ne i32 %call10, 39
  br i1 %cmp11, label %while.body, label %while.end

while.body:                                       ; preds = %while.cond
  %state12 = getelementptr inbounds %"struct.icu_75::number::impl::ParsedPatternInfo", ptr %this1, i32 0, i32 4
  %call13 = call noundef i32 @_ZN6icu_756number4impl17ParsedPatternInfo11ParserState4peekEv(ptr noundef nonnull align 8 dereferenceable(12) %state12)
  %cmp14 = icmp eq i32 %call13, -1
  br i1 %cmp14, label %if.then15, label %if.else17

if.then15:                                        ; preds = %while.body
  %state16 = getelementptr inbounds %"struct.icu_75::number::impl::ParsedPatternInfo", ptr %this1, i32 0, i32 4
  call void @_ZN6icu_756number4impl17ParsedPatternInfo11ParserState16toParseExceptionEPKDs(ptr noundef nonnull align 8 dereferenceable(12) %state16, ptr noundef @.str.3)
  %1 = load ptr, ptr %status.addr, align 8
  store i32 65799, ptr %1, align 4
  br label %if.end26

if.else17:                                        ; preds = %while.body
  %state18 = getelementptr inbounds %"struct.icu_75::number::impl::ParsedPatternInfo", ptr %this1, i32 0, i32 4
  %call19 = call noundef i32 @_ZN6icu_756number4impl17ParsedPatternInfo11ParserState4nextEv(ptr noundef nonnull align 8 dereferenceable(12) %state18)
  br label %if.end

if.end:                                           ; preds = %if.else17
  br label %while.cond, !llvm.loop !7

while.end:                                        ; preds = %while.cond
  %state20 = getelementptr inbounds %"struct.icu_75::number::impl::ParsedPatternInfo", ptr %this1, i32 0, i32 4
  %call21 = call noundef i32 @_ZN6icu_756number4impl17ParsedPatternInfo11ParserState4nextEv(ptr noundef nonnull align 8 dereferenceable(12) %state20)
  br label %if.end25

if.else22:                                        ; preds = %if.else
  %state23 = getelementptr inbounds %"struct.icu_75::number::impl::ParsedPatternInfo", ptr %this1, i32 0, i32 4
  %call24 = call noundef i32 @_ZN6icu_756number4impl17ParsedPatternInfo11ParserState4nextEv(ptr noundef nonnull align 8 dereferenceable(12) %state23)
  br label %if.end25

if.end25:                                         ; preds = %if.else22, %while.end
  br label %if.end26

if.end26:                                         ; preds = %if.end25, %if.then15, %if.then
  ret void
}