; Function Attrs: mustprogress uwtable
define void @_ZN6icu_756number4impl17ParsedPatternInfo14consumeLiteralER10UErrorCode(ptr nocapture noundef nonnull align 8 dereferenceable(433) %this, ptr nocapture noundef nonnull writeonly align 4 dereferenceable(4) %status) local_unnamed_addr #1 align 2 {
entry:
  %state = getelementptr inbounds i8, ptr %this, i64 408
  %offset.i = getelementptr inbounds i8, ptr %this, i64 416
  %0 = load i32, ptr %offset.i, align 8
  %1 = load ptr, ptr %state, align 8
  %fUnion.i.i.i = getelementptr inbounds i8, ptr %1, i64 8
  %2 = load i16, ptr %fUnion.i.i.i, align 8
  %cmp.i.i.i = icmp slt i16 %2, 0
  %3 = ashr i16 %2, 5
  %shr.i.i.i = sext i16 %3 to i32
  %fLength.i.i = getelementptr inbounds i8, ptr %1, i64 12
  %4 = load i32, ptr %fLength.i.i, align 4
  %cond.i.i = select i1 %cmp.i.i.i, i32 %4, i32 %shr.i.i.i
  %cmp.i = icmp eq i32 %0, %cond.i.i
  br i1 %cmp.i, label %if.then, label %_ZN6icu_756number4impl17ParsedPatternInfo11ParserState4peekEv.exit

_ZN6icu_756number4impl17ParsedPatternInfo11ParserState4peekEv.exit: ; preds = %entry
  %call4.i = tail call noundef i32 @_ZNK6icu_7513UnicodeString8char32AtEi(ptr noundef nonnull align 8 dereferenceable(64) %1, i32 noundef %0)
  %cmp = icmp eq i32 %call4.i, -1
  br i1 %cmp, label %if.then, label %if.else

if.then:                                          ; preds = %entry, %_ZN6icu_756number4impl17ParsedPatternInfo11ParserState4peekEv.exit
  store i32 65799, ptr %status, align 4
  br label %if.end26

if.else:                                          ; preds = %_ZN6icu_756number4impl17ParsedPatternInfo11ParserState4peekEv.exit
  %5 = load i32, ptr %offset.i, align 8
  %6 = load ptr, ptr %state, align 8
  %fUnion.i.i.i3 = getelementptr inbounds i8, ptr %6, i64 8
  %7 = load i16, ptr %fUnion.i.i.i3, align 8
  %cmp.i.i.i4 = icmp slt i16 %7, 0
  %8 = ashr i16 %7, 5
  %shr.i.i.i5 = sext i16 %8 to i32
  %fLength.i.i6 = getelementptr inbounds i8, ptr %6, i64 12
  %9 = load i32, ptr %fLength.i.i6, align 4
  %cond.i.i7 = select i1 %cmp.i.i.i4, i32 %9, i32 %shr.i.i.i5
  %cmp.i8 = icmp eq i32 %5, %cond.i.i7
  br i1 %cmp.i8, label %if.else22, label %_ZN6icu_756number4impl17ParsedPatternInfo11ParserState4peekEv.exit12

_ZN6icu_756number4impl17ParsedPatternInfo11ParserState4peekEv.exit12: ; preds = %if.else
  %call4.i10 = tail call noundef i32 @_ZNK6icu_7513UnicodeString8char32AtEi(ptr noundef nonnull align 8 dereferenceable(64) %6, i32 noundef %5)
  %cmp5 = icmp eq i32 %call4.i10, 39
  %.pre92 = load i32, ptr %offset.i, align 8
  %.pre93 = load ptr, ptr %state, align 8
  %fUnion.i.i.i.i = getelementptr inbounds i8, ptr %.pre93, i64 8
  %10 = load i16, ptr %fUnion.i.i.i.i, align 8
  br i1 %cmp5, label %if.then6, label %_ZN6icu_756number4impl17ParsedPatternInfo11ParserState4peekEv.exit12.if.else22_crit_edge

_ZN6icu_756number4impl17ParsedPatternInfo11ParserState4peekEv.exit12.if.else22_crit_edge: ; preds = %_ZN6icu_756number4impl17ParsedPatternInfo11ParserState4peekEv.exit12
  %fLength.i.i.i70.phi.trans.insert = getelementptr inbounds i8, ptr %.pre93, i64 12
  %.pre95 = load i32, ptr %fLength.i.i.i70.phi.trans.insert, align 4
  %.pre96 = ashr i16 %10, 5
  %.pre97 = sext i16 %.pre96 to i32
  br label %if.else22

if.then6:                                         ; preds = %_ZN6icu_756number4impl17ParsedPatternInfo11ParserState4peekEv.exit12
  %cmp.i.i.i.i = icmp slt i16 %10, 0
  %11 = ashr i16 %10, 5
  %shr.i.i.i.i = sext i16 %11 to i32
  %fLength.i.i.i = getelementptr inbounds i8, ptr %.pre93, i64 12
  %12 = load i32, ptr %fLength.i.i.i, align 4
  %cond.i.i.i = select i1 %cmp.i.i.i.i, i32 %12, i32 %shr.i.i.i.i
  %cmp.i.i = icmp eq i32 %.pre92, %cond.i.i.i
  br i1 %cmp.i.i, label %_ZN6icu_756number4impl17ParsedPatternInfo11ParserState4nextEv.exit, label %_ZN6icu_756number4impl17ParsedPatternInfo11ParserState4peekEv.exit.i

_ZN6icu_756number4impl17ParsedPatternInfo11ParserState4peekEv.exit.i: ; preds = %if.then6
  %call4.i.i = tail call noundef i32 @_ZNK6icu_7513UnicodeString8char32AtEi(ptr noundef nonnull align 8 dereferenceable(64) %.pre93, i32 noundef %.pre92)
  %cmp.i13 = icmp ult i32 %call4.i.i, 65536
  %spec.select.i = select i1 %cmp.i13, i32 1, i32 2
  %.pre.i = load i32, ptr %offset.i, align 8
  br label %_ZN6icu_756number4impl17ParsedPatternInfo11ParserState4nextEv.exit

_ZN6icu_756number4impl17ParsedPatternInfo11ParserState4nextEv.exit: ; preds = %if.then6, %_ZN6icu_756number4impl17ParsedPatternInfo11ParserState4peekEv.exit.i
  %13 = phi i32 [ %.pre92, %if.then6 ], [ %.pre.i, %_ZN6icu_756number4impl17ParsedPatternInfo11ParserState4peekEv.exit.i ]
  %14 = phi i32 [ 2, %if.then6 ], [ %spec.select.i, %_ZN6icu_756number4impl17ParsedPatternInfo11ParserState4peekEv.exit.i ]
  %add.i = add nsw i32 %14, %13
  br label %while.cond

while.cond:                                       ; preds = %_ZN6icu_756number4impl17ParsedPatternInfo11ParserState4nextEv.exit50, %_ZN6icu_756number4impl17ParsedPatternInfo11ParserState4nextEv.exit
  %storemerge = phi i32 [ %add.i, %_ZN6icu_756number4impl17ParsedPatternInfo11ParserState4nextEv.exit ], [ %add.i49, %_ZN6icu_756number4impl17ParsedPatternInfo11ParserState4nextEv.exit50 ]
  store i32 %storemerge, ptr %offset.i, align 8
  %15 = load ptr, ptr %state, align 8
  %fUnion.i.i.i15 = getelementptr inbounds i8, ptr %15, i64 8
  %16 = load i16, ptr %fUnion.i.i.i15, align 8
  %cmp.i.i.i16 = icmp slt i16 %16, 0
  %17 = ashr i16 %16, 5
  %shr.i.i.i17 = sext i16 %17 to i32
  %fLength.i.i18 = getelementptr inbounds i8, ptr %15, i64 12
  %18 = load i32, ptr %fLength.i.i18, align 4
  %cond.i.i19 = select i1 %cmp.i.i.i16, i32 %18, i32 %shr.i.i.i17
  %cmp.i20 = icmp eq i32 %storemerge, %cond.i.i19
  br i1 %cmp.i20, label %while.body, label %_ZN6icu_756number4impl17ParsedPatternInfo11ParserState4peekEv.exit24

_ZN6icu_756number4impl17ParsedPatternInfo11ParserState4peekEv.exit24: ; preds = %while.cond
  %call4.i22 = tail call noundef i32 @_ZNK6icu_7513UnicodeString8char32AtEi(ptr noundef nonnull align 8 dereferenceable(64) %15, i32 noundef %storemerge)
  %cmp11.not = icmp eq i32 %call4.i22, 39
  %.pre = load i32, ptr %offset.i, align 8
  %.pre89 = load ptr, ptr %state, align 8
  %fUnion.i.i.i.i52 = getelementptr inbounds i8, ptr %.pre89, i64 8
  %19 = load i16, ptr %fUnion.i.i.i.i52, align 8
  br i1 %cmp11.not, label %while.end, label %_ZN6icu_756number4impl17ParsedPatternInfo11ParserState4peekEv.exit24.while.body_crit_edge

_ZN6icu_756number4impl17ParsedPatternInfo11ParserState4peekEv.exit24.while.body_crit_edge: ; preds = %_ZN6icu_756number4impl17ParsedPatternInfo11ParserState4peekEv.exit24
  %fLength.i.i29.phi.trans.insert = getelementptr inbounds i8, ptr %.pre89, i64 12
  %.pre91 = load i32, ptr %fLength.i.i29.phi.trans.insert, align 4
  %.pre98 = ashr i16 %19, 5
  %.pre100 = sext i16 %.pre98 to i32
  br label %while.body

while.body:                                       ; preds = %_ZN6icu_756number4impl17ParsedPatternInfo11ParserState4peekEv.exit24.while.body_crit_edge, %while.cond
  %shr.i.i.i28.pre-phi = phi i32 [ %.pre100, %_ZN6icu_756number4impl17ParsedPatternInfo11ParserState4peekEv.exit24.while.body_crit_edge ], [ %shr.i.i.i17, %while.cond ]
  %20 = phi i32 [ %.pre91, %_ZN6icu_756number4impl17ParsedPatternInfo11ParserState4peekEv.exit24.while.body_crit_edge ], [ %18, %while.cond ]
  %21 = phi i16 [ %19, %_ZN6icu_756number4impl17ParsedPatternInfo11ParserState4peekEv.exit24.while.body_crit_edge ], [ %16, %while.cond ]
  %22 = phi ptr [ %.pre89, %_ZN6icu_756number4impl17ParsedPatternInfo11ParserState4peekEv.exit24.while.body_crit_edge ], [ %15, %while.cond ]
  %23 = phi i32 [ %.pre, %_ZN6icu_756number4impl17ParsedPatternInfo11ParserState4peekEv.exit24.while.body_crit_edge ], [ %storemerge, %while.cond ]
  %cmp.i.i.i27 = icmp slt i16 %21, 0
  %cond.i.i30 = select i1 %cmp.i.i.i27, i32 %20, i32 %shr.i.i.i28.pre-phi
  %cmp.i31 = icmp eq i32 %23, %cond.i.i30
  br i1 %cmp.i31, label %if.then15, label %_ZN6icu_756number4impl17ParsedPatternInfo11ParserState4peekEv.exit35

_ZN6icu_756number4impl17ParsedPatternInfo11ParserState4peekEv.exit35: ; preds = %while.body
  %call4.i33 = tail call noundef i32 @_ZNK6icu_7513UnicodeString8char32AtEi(ptr noundef nonnull align 8 dereferenceable(64) %22, i32 noundef %23)
  %cmp14 = icmp eq i32 %call4.i33, -1
  br i1 %cmp14, label %if.then15, label %if.else17

if.then15:                                        ; preds = %while.body, %_ZN6icu_756number4impl17ParsedPatternInfo11ParserState4peekEv.exit35
  store i32 65799, ptr %status, align 4
  br label %if.end26

if.else17:                                        ; preds = %_ZN6icu_756number4impl17ParsedPatternInfo11ParserState4peekEv.exit35
  %24 = load i32, ptr %offset.i, align 8
  %25 = load ptr, ptr %state, align 8
  %fUnion.i.i.i.i37 = getelementptr inbounds i8, ptr %25, i64 8
  %26 = load i16, ptr %fUnion.i.i.i.i37, align 8
  %cmp.i.i.i.i38 = icmp slt i16 %26, 0
  %27 = ashr i16 %26, 5
  %shr.i.i.i.i39 = sext i16 %27 to i32
  %fLength.i.i.i40 = getelementptr inbounds i8, ptr %25, i64 12
  %28 = load i32, ptr %fLength.i.i.i40, align 4
  %cond.i.i.i41 = select i1 %cmp.i.i.i.i38, i32 %28, i32 %shr.i.i.i.i39
  %cmp.i.i42 = icmp eq i32 %24, %cond.i.i.i41
  br i1 %cmp.i.i42, label %_ZN6icu_756number4impl17ParsedPatternInfo11ParserState4nextEv.exit50, label %_ZN6icu_756number4impl17ParsedPatternInfo11ParserState4peekEv.exit.i43

_ZN6icu_756number4impl17ParsedPatternInfo11ParserState4peekEv.exit.i43: ; preds = %if.else17
  %call4.i.i44 = tail call noundef i32 @_ZNK6icu_7513UnicodeString8char32AtEi(ptr noundef nonnull align 8 dereferenceable(64) %25, i32 noundef %24)
  %cmp.i45 = icmp ult i32 %call4.i.i44, 65536
  %spec.select.i46 = select i1 %cmp.i45, i32 1, i32 2
  %.pre.i47 = load i32, ptr %offset.i, align 8
  br label %_ZN6icu_756number4impl17ParsedPatternInfo11ParserState4nextEv.exit50

_ZN6icu_756number4impl17ParsedPatternInfo11ParserState4nextEv.exit50: ; preds = %if.else17, %_ZN6icu_756number4impl17ParsedPatternInfo11ParserState4peekEv.exit.i43
  %29 = phi i32 [ %24, %if.else17 ], [ %.pre.i47, %_ZN6icu_756number4impl17ParsedPatternInfo11ParserState4peekEv.exit.i43 ]
  %30 = phi i32 [ 2, %if.else17 ], [ %spec.select.i46, %_ZN6icu_756number4impl17ParsedPatternInfo11ParserState4peekEv.exit.i43 ]
  %add.i49 = add nsw i32 %30, %29
  br label %while.cond, !llvm.loop !7

while.end:                                        ; preds = %_ZN6icu_756number4impl17ParsedPatternInfo11ParserState4peekEv.exit24
  %cmp.i.i.i.i53 = icmp slt i16 %19, 0
  %31 = ashr i16 %19, 5
  %shr.i.i.i.i54 = sext i16 %31 to i32
  %fLength.i.i.i55 = getelementptr inbounds i8, ptr %.pre89, i64 12
  %32 = load i32, ptr %fLength.i.i.i55, align 4
  %cond.i.i.i56 = select i1 %cmp.i.i.i.i53, i32 %32, i32 %shr.i.i.i.i54
  %cmp.i.i57 = icmp eq i32 %.pre, %cond.i.i.i56
  br i1 %cmp.i.i57, label %_ZN6icu_756number4impl17ParsedPatternInfo11ParserState4nextEv.exit65, label %_ZN6icu_756number4impl17ParsedPatternInfo11ParserState4peekEv.exit.i58

_ZN6icu_756number4impl17ParsedPatternInfo11ParserState4peekEv.exit.i58: ; preds = %while.end
  %call4.i.i59 = tail call noundef i32 @_ZNK6icu_7513UnicodeString8char32AtEi(ptr noundef nonnull align 8 dereferenceable(64) %.pre89, i32 noundef %.pre)
  %cmp.i60 = icmp ult i32 %call4.i.i59, 65536
  %spec.select.i61 = select i1 %cmp.i60, i32 1, i32 2
  %.pre.i62 = load i32, ptr %offset.i, align 8
  br label %_ZN6icu_756number4impl17ParsedPatternInfo11ParserState4nextEv.exit65

_ZN6icu_756number4impl17ParsedPatternInfo11ParserState4nextEv.exit65: ; preds = %while.end, %_ZN6icu_756number4impl17ParsedPatternInfo11ParserState4peekEv.exit.i58
  %33 = phi i32 [ %.pre, %while.end ], [ %.pre.i62, %_ZN6icu_756number4impl17ParsedPatternInfo11ParserState4peekEv.exit.i58 ]
  %34 = phi i32 [ 2, %while.end ], [ %spec.select.i61, %_ZN6icu_756number4impl17ParsedPatternInfo11ParserState4peekEv.exit.i58 ]
  %add.i64 = add nsw i32 %34, %33
  store i32 %add.i64, ptr %offset.i, align 8
  br label %if.end26

if.else22:                                        ; preds = %_ZN6icu_756number4impl17ParsedPatternInfo11ParserState4peekEv.exit12.if.else22_crit_edge, %if.else
  %shr.i.i.i.i69.pre-phi = phi i32 [ %.pre97, %_ZN6icu_756number4impl17ParsedPatternInfo11ParserState4peekEv.exit12.if.else22_crit_edge ], [ %shr.i.i.i5, %if.else ]
  %35 = phi i32 [ %.pre95, %_ZN6icu_756number4impl17ParsedPatternInfo11ParserState4peekEv.exit12.if.else22_crit_edge ], [ %9, %if.else ]
  %36 = phi i16 [ %10, %_ZN6icu_756number4impl17ParsedPatternInfo11ParserState4peekEv.exit12.if.else22_crit_edge ], [ %7, %if.else ]
  %37 = phi ptr [ %.pre93, %_ZN6icu_756number4impl17ParsedPatternInfo11ParserState4peekEv.exit12.if.else22_crit_edge ], [ %6, %if.else ]
  %38 = phi i32 [ %.pre92, %_ZN6icu_756number4impl17ParsedPatternInfo11ParserState4peekEv.exit12.if.else22_crit_edge ], [ %5, %if.else ]
  %cmp.i.i.i.i68 = icmp slt i16 %36, 0
  %cond.i.i.i71 = select i1 %cmp.i.i.i.i68, i32 %35, i32 %shr.i.i.i.i69.pre-phi
  %cmp.i.i72 = icmp eq i32 %38, %cond.i.i.i71
  br i1 %cmp.i.i72, label %_ZN6icu_756number4impl17ParsedPatternInfo11ParserState4nextEv.exit80, label %_ZN6icu_756number4impl17ParsedPatternInfo11ParserState4peekEv.exit.i73

_ZN6icu_756number4impl17ParsedPatternInfo11ParserState4peekEv.exit.i73: ; preds = %if.else22
  %call4.i.i74 = tail call noundef i32 @_ZNK6icu_7513UnicodeString8char32AtEi(ptr noundef nonnull align 8 dereferenceable(64) %37, i32 noundef %38)
  %cmp.i75 = icmp ult i32 %call4.i.i74, 65536
  %spec.select.i76 = select i1 %cmp.i75, i32 1, i32 2
  %.pre.i77 = load i32, ptr %offset.i, align 8
  br label %_ZN6icu_756number4impl17ParsedPatternInfo11ParserState4nextEv.exit80

_ZN6icu_756number4impl17ParsedPatternInfo11ParserState4nextEv.exit80: ; preds = %if.else22, %_ZN6icu_756number4impl17ParsedPatternInfo11ParserState4peekEv.exit.i73
  %39 = phi i32 [ %38, %if.else22 ], [ %.pre.i77, %_ZN6icu_756number4impl17ParsedPatternInfo11ParserState4peekEv.exit.i73 ]
  %40 = phi i32 [ 2, %if.else22 ], [ %spec.select.i76, %_ZN6icu_756number4impl17ParsedPatternInfo11ParserState4peekEv.exit.i73 ]
  %add.i79 = add nsw i32 %40, %39
  store i32 %add.i79, ptr %offset.i, align 8
  br label %if.end26

if.end26:                                         ; preds = %_ZN6icu_756number4impl17ParsedPatternInfo11ParserState4nextEv.exit65, %_ZN6icu_756number4impl17ParsedPatternInfo11ParserState4nextEv.exit80, %if.then15, %if.then
  ret void
}